target datalayout = "e-m:e-p270:32:32-p271:32:32-p272:64:64-i64:64-i128:128-f80:128-n8:16:32:64-S128"
target triple = "x86_64-pc-linux-gnu"

%struct._generic_SUNMatrix = type { ptr, ptr, ptr }
%struct._SUNMatrixContent_Sparse = type { i64, i64, i64, i64, ptr, i32, ptr, ptr, ptr, ptr, ptr, ptr }

; Function Attrs: nounwind uwtable
define i32 @SUNMatSpace_Sparse(ptr noundef %0, ptr noundef %1, ptr noundef %2) #0 {
  %4 = alloca ptr, align 8
  %5 = alloca ptr, align 8
  %6 = alloca ptr, align 8
  %7 = alloca ptr, align 8
  store ptr %0, ptr %4, align 8, !tbaa !12
  store ptr %1, ptr %5, align 8, !tbaa !49
  store ptr %2, ptr %6, align 8, !tbaa !49
  call void @llvm.lifetime.start.p0(i64 8, ptr %7) #8
  %8 = load ptr, ptr %4, align 8, !tbaa !12
  %9 = getelementptr inbounds nuw %struct._generic_SUNMatrix, ptr %8, i32 0, i32 2
  %10 = load ptr, ptr %9, align 8, !tbaa !46
  store ptr %10, ptr %7, align 8, !tbaa !9
  %11 = load ptr, ptr %4, align 8, !tbaa !12
  %12 = getelementptr inbounds nuw %struct._generic_SUNMatrix, ptr %11, i32 0, i32 0
  %13 = load ptr, ptr %12, align 8, !tbaa !29
  %14 = getelementptr inbounds nuw %struct._SUNMatrixContent_Sparse, ptr %13, i32 0, i32 2
  %15 = load i64, ptr %14, align 8, !tbaa !37
  %16 = load ptr, ptr %5, align 8, !tbaa !49
  store i64 %15, ptr %16, align 8, !tbaa !3
  %17 = load ptr, ptr %4, align 8, !tbaa !12
  %18 = getelementptr inbounds nuw %struct._generic_SUNMatrix, ptr %17, i32 0, i32 0
  %19 = load ptr, ptr %18, align 8, !tbaa !29
  %20 = getelementptr inbounds nuw %struct._SUNMatrixContent_Sparse, ptr %19, i32 0, i32 3
  %21 = load i64, ptr %20, align 8, !tbaa !38
  %22 = add nsw i64 10, %21
  %23 = load ptr, ptr %4, align 8, !tbaa !12
  %24 = getelementptr inbounds nuw %struct._generic_SUNMatrix, ptr %23, i32 0, i32 0
  %25 = load ptr, ptr %24, align 8, !tbaa !29
  %26 = getelementptr inbounds nuw %struct._SUNMatrixContent_Sparse, ptr %25, i32 0, i32 2
  %27 = load i64, ptr %26, align 8, !tbaa !37
  %28 = add nsw i64 %22, %27
  %29 = load ptr, ptr %6, align 8, !tbaa !49
  store i64 %28, ptr %29, align 8, !tbaa !3
  call void @llvm.lifetime.end.p0(i64 8, ptr %7) #8
  ret i32 0
}