; Function Attrs: mustprogress nofree norecurse nosync nounwind willreturn memory(read, argmem: readwrite, inaccessiblemem: none) uwtable
define noundef i32 @SUNMatSpace_Sparse(ptr noundef readonly captures(none) %0, ptr noundef writeonly captures(none) initializes((0, 8)) %1, ptr noundef writeonly captures(none) initializes((0, 8)) %2) #5 {
  %4 = load ptr, ptr %0, align 8, !tbaa !20
  %5 = getelementptr inbounds nuw i8, ptr %4, i64 16
  %6 = load i64, ptr %5, align 8, !tbaa !30
  store i64 %6, ptr %1, align 8, !tbaa !43
  %7 = getelementptr inbounds nuw i8, ptr %4, i64 24
  %8 = load i64, ptr %7, align 8, !tbaa !31
  %9 = add nsw i64 %8, 10
  %10 = add nsw i64 %9, %6
  store i64 %10, ptr %2, align 8, !tbaa !43
  ret i32 0
}